target datalayout = "e-m:e-p270:32:32-p271:32:32-p272:64:64-i64:64-i128:128-f80:128-n8:16:32:64-S128"
target triple = "x86_64-pc-linux-gnu"

%struct.ASNGetData = type { i32, i32, %union.anon.0, i8, i8 }
%union.anon.0 = type { %struct.anon.3 }
%struct.anon.3 = type { ptr, i32, i32, i32 }
%struct.RsaKey = type { %struct.sp_int, %struct.sp_int, %struct.sp_int, %struct.sp_int, %struct.sp_int, %struct.sp_int, %struct.sp_int, %struct.sp_int, ptr, ptr, i32, i32, i32, ptr, i8 }
%struct.sp_int = type { i16, i16, [129 x i64] }

@rsaIntOffset = global [8 x i64] [i64 0, i64 1040, i64 2080, i64 3120, i64 4160, i64 5200, i64 6240, i64 7280], align 16

; Function Attrs: nounwind uwtable
define internal ptr @GetRsaInt(ptr noundef %0, i32 noundef %1) #0 {
  %3 = alloca ptr, align 8
  %4 = alloca i32, align 4
  store ptr %0, ptr %3, align 8, !tbaa !62
  store i32 %1, ptr %4, align 4, !tbaa !3
  %5 = load ptr, ptr %3, align 8, !tbaa !62
  %6 = load i32, ptr %4, align 4, !tbaa !3
  %7 = sext i32 %6 to i64
  %8 = getelementptr inbounds [8 x i64], ptr @rsaIntOffset, i64 0, i64 %7
  %9 = load i64, ptr %8, align 8, !tbaa !76
  %10 = getelementptr inbounds nuw i8, ptr %5, i64 %9
  ret ptr %10
}

; Function Attrs: nounwind uwtable
define i32 @ToTraditionalInline_ex(ptr noundef %0, ptr noundef %1, i32 noundef %2, ptr noundef %3) #0 {
  %5 = alloca ptr, align 8
  %6 = alloca ptr, align 8
  %7 = alloca i32, align 4
  %8 = alloca ptr, align 8
  store ptr %0, ptr %5, align 8, !tbaa !7
  store ptr %1, ptr %6, align 8, !tbaa !18
  store i32 %2, ptr %7, align 4, !tbaa !3
  store ptr %3, ptr %8, align 8, !tbaa !18
  %9 = load ptr, ptr %5, align 8, !tbaa !7
  %10 = load ptr, ptr %6, align 8, !tbaa !18
  %11 = load i32, ptr %7, align 4, !tbaa !3
  %12 = load ptr, ptr %8, align 8, !tbaa !18
  %13 = call i32 @ToTraditionalInline_ex2(ptr noundef %9, ptr noundef %10, i32 noundef %11, ptr noundef %12, ptr noundef null)
  ret i32 %13
}

; Function Attrs: nounwind uwtable
define internal i32 @_RsaPrivateKeyDecode(ptr noundef %0, ptr noundef %1, ptr noundef %2, ptr noundef %3, i32 noundef %4) #0 {
  %6 = alloca ptr, align 8
  %7 = alloca ptr, align 8
  %8 = alloca ptr, align 8
  %9 = alloca ptr, align 8
  %10 = alloca i32, align 4
  %11 = alloca [10 x %struct.ASNGetData], align 16
  %12 = alloca i32, align 4
  %13 = alloca i8, align 1
  %14 = alloca i32, align 4
  %15 = alloca ptr, align 8
  %16 = alloca i32, align 4
  store ptr %0, ptr %6, align 8, !tbaa !7
  store ptr %1, ptr %7, align 8, !tbaa !18
  store ptr %2, ptr %8, align 8, !tbaa !62
  store ptr %3, ptr %9, align 8, !tbaa !18
  store i32 %4, ptr %10, align 4, !tbaa !3
  call void @llvm.lifetime.start.p0(i64 400, ptr %11) #9
  call void @llvm.lifetime.start.p0(i64 4, ptr %12) #9
  store i32 0, ptr %12, align 4, !tbaa !3
  call void @llvm.lifetime.start.p0(i64 1, ptr %13) #9
  store i8 -1, ptr %13, align 1, !tbaa !10
  call void @llvm.lifetime.start.p0(i64 4, ptr %14) #9
  store i32 0, ptr %14, align 4, !tbaa !3
  call void @llvm.lifetime.start.p0(i64 8, ptr %15) #9
  store ptr null, ptr %15, align 8, !tbaa !64
  %17 = load ptr, ptr %7, align 8, !tbaa !18
  %18 = icmp eq ptr %17, null
  br i1 %18, label %28, label %19

19:                                               ; preds = %5
  %20 = load ptr, ptr %6, align 8, !tbaa !7
  %21 = icmp eq ptr %20, null
  br i1 %21, label %28, label %22

22:                                               ; preds = %19
  %23 = load ptr, ptr %8, align 8, !tbaa !62
  %24 = icmp eq ptr %23, null
  br i1 %24, label %25, label %29

25:                                               ; preds = %22
  %26 = load ptr, ptr %9, align 8, !tbaa !18
  %27 = icmp eq ptr %26, null
  br i1 %27, label %28, label %29

28:                                               ; preds = %25, %19, %5
  store i32 -173, ptr %12, align 4, !tbaa !3
  br label %29

29:                                               ; preds = %28, %25, %22
  %30 = load i32, ptr %12, align 4, !tbaa !3
  %31 = icmp eq i32 %30, 0
  br i1 %31, label %32, label %39

32:                                               ; preds = %29
  %33 = load ptr, ptr %8, align 8, !tbaa !62
  %34 = icmp ne ptr %33, null
  br i1 %34, label %35, label %39

35:                                               ; preds = %32
  %36 = load ptr, ptr %8, align 8, !tbaa !62
  %37 = getelementptr inbounds nuw %struct.RsaKey, ptr %36, i32 0, i32 8
  %38 = load ptr, ptr %37, align 8, !tbaa !65
  store ptr %38, ptr %15, align 8, !tbaa !64
  br label %39

39:                                               ; preds = %35, %32, %29
  %40 = load i32, ptr %12, align 4, !tbaa !3
  %41 = icmp eq i32 %40, 0
  br i1 %41, label %42, label %50

42:                                               ; preds = %39
  %43 = load ptr, ptr %6, align 8, !tbaa !7
  %44 = load ptr, ptr %7, align 8, !tbaa !18
  %45 = load i32, ptr %10, align 4, !tbaa !3
  %46 = call i32 @ToTraditionalInline_ex(ptr noundef %43, ptr noundef %44, i32 noundef %45, ptr noundef %14)
  %47 = icmp slt i32 %46, 0
  br i1 %47, label %48, label %49

48:                                               ; preds = %42
  br label %49

49:                                               ; preds = %48, %42
  br label %50

50:                                               ; preds = %49, %39
  %51 = getelementptr inbounds [10 x %struct.ASNGetData], ptr %11, i64 0, i64 0
  call void @llvm.memset.p0.i64(ptr align 16 %51, i8 0, i64 400, i1 false)
  %52 = load i32, ptr %12, align 4, !tbaa !3
  %53 = icmp eq i32 %52, 0
  br i1 %53, label %54, label %95

54:                                               ; preds = %50
  br label %55

55:                                               ; preds = %54
  %56 = getelementptr inbounds [10 x %struct.ASNGetData], ptr %11, i64 0, i64 1
  %57 = getelementptr inbounds nuw %struct.ASNGetData, ptr %56, i32 0, i32 3
  store i8 1, ptr %57, align 8, !tbaa !43
  %58 = getelementptr inbounds [10 x %struct.ASNGetData], ptr %11, i64 0, i64 1
  %59 = getelementptr inbounds nuw %struct.ASNGetData, ptr %58, i32 0, i32 2
  store ptr %13, ptr %59, align 8, !tbaa !10
  br label %60

60:                                               ; preds = %55
  br label %61

61:                                               ; preds = %60
  %62 = load ptr, ptr %8, align 8, !tbaa !62
  %63 = icmp ne ptr %62, null
  br i1 %63, label %64, label %89

64:                                               ; preds = %61
  call void @llvm.lifetime.start.p0(i64 4, ptr %16) #9
  store i32 0, ptr %16, align 4, !tbaa !3
  br label %65

65:                                               ; preds = %85, %64
  %66 = load i32, ptr %16, align 4, !tbaa !3
  %67 = icmp slt i32 %66, 8
  br i1 %67, label %68, label %88

68:                                               ; preds = %65
  br label %69

69:                                               ; preds = %68
  %70 = load i32, ptr %16, align 4, !tbaa !3
  %71 = add nsw i32 2, %70
  %72 = sext i32 %71 to i64
  %73 = getelementptr inbounds [10 x %struct.ASNGetData], ptr %11, i64 0, i64 %72
  %74 = getelementptr inbounds nuw %struct.ASNGetData, ptr %73, i32 0, i32 3
  store i8 8, ptr %74, align 8, !tbaa !43
  %75 = load ptr, ptr %8, align 8, !tbaa !62
  %76 = load i32, ptr %16, align 4, !tbaa !3
  %77 = call ptr @GetRsaInt(ptr noundef %75, i32 noundef %76)
  %78 = load i32, ptr %16, align 4, !tbaa !3
  %79 = add nsw i32 2, %78
  %80 = sext i32 %79 to i64
  %81 = getelementptr inbounds [10 x %struct.ASNGetData], ptr %11, i64 0, i64 %80
  %82 = getelementptr inbounds nuw %struct.ASNGetData, ptr %81, i32 0, i32 2
  store ptr %77, ptr %82, align 8, !tbaa !10
  br label %83

83:                                               ; preds = %69
  br label %84

84:                                               ; preds = %83
  br label %85

85:                                               ; preds = %84
  %86 = load i32, ptr %16, align 4, !tbaa !3
  %87 = add nsw i32 %86, 1
  store i32 %87, ptr %16, align 4, !tbaa !3
  br label %65, !llvm.loop !69

88:                                               ; preds = %65
  call void @llvm.lifetime.end.p0(i64 4, ptr %16) #9
  br label %89

89:                                               ; preds = %88, %61
  %90 = getelementptr inbounds [10 x %struct.ASNGetData], ptr %11, i64 0, i64 0
  %91 = load ptr, ptr %6, align 8, !tbaa !7
  %92 = load ptr, ptr %7, align 8, !tbaa !18
  %93 = load i32, ptr %10, align 4, !tbaa !3
  %94 = call i32 @GetASN_Items(ptr noundef @rsaKeyASN, ptr noundef %90, i32 noundef 10, i32 noundef 1, ptr noundef %91, ptr noundef %92, i32 noundef %93)
  store i32 %94, ptr %12, align 4, !tbaa !3
  br label %95

95:                                               ; preds = %89, %50
  %96 = load i32, ptr %12, align 4, !tbaa !3
  %97 = icmp eq i32 %96, 0
  br i1 %97, label %98, label %103

98:                                               ; preds = %95
  %99 = load i8, ptr %13, align 1, !tbaa !10
  %100 = zext i8 %99 to i32
  %101 = icmp sgt i32 %100, 1
  br i1 %101, label %102, label %103

102:                                              ; preds = %98
  store i32 -140, ptr %12, align 4, !tbaa !3
  br label %103

103:                                              ; preds = %102, %98, %95
  %104 = load i32, ptr %12, align 4, !tbaa !3
  %105 = icmp eq i32 %104, 0
  br i1 %105, label %106, label %112

106:                                              ; preds = %103
  %107 = load ptr, ptr %8, align 8, !tbaa !62
  %108 = icmp ne ptr %107, null
  br i1 %108, label %109, label %112

109:                                              ; preds = %106
  %110 = load ptr, ptr %8, align 8, !tbaa !62
  %111 = getelementptr inbounds nuw %struct.RsaKey, ptr %110, i32 0, i32 10
  store i32 1, ptr %111, align 8, !tbaa !70
  br label %138

112:                                              ; preds = %106, %103
  %113 = load i32, ptr %12, align 4, !tbaa !3
  %114 = icmp eq i32 %113, 0
  br i1 %114, label %115, label %137

115:                                              ; preds = %112
  %116 = getelementptr inbounds nuw [10 x %struct.ASNGetData], ptr %11, i64 0, i64 2
  %117 = getelementptr inbounds nuw %struct.ASNGetData, ptr %116, i32 0, i32 1
  %118 = load i32, ptr %117, align 4, !tbaa !41
  %119 = load ptr, ptr %9, align 8, !tbaa !18
  store i32 %118, ptr %119, align 4, !tbaa !3
  %120 = load ptr, ptr %6, align 8, !tbaa !7
  %121 = getelementptr inbounds [10 x %struct.ASNGetData], ptr %11, i64 0, i64 3
  %122 = getelementptr inbounds nuw %struct.ASNGetData, ptr %121, i32 0, i32 0
  %123 = load i32, ptr %122, align 8, !tbaa !39
  %124 = load ptr, ptr %9, align 8, !tbaa !18
  %125 = load i32, ptr %124, align 4, !tbaa !3
  %126 = sub nsw i32 %123, %125
  %127 = sext i32 %126 to i64
  %128 = getelementptr inbounds i8, ptr %120, i64 %127
  %129 = load i8, ptr %128, align 1, !tbaa !10
  %130 = zext i8 %129 to i32
  %131 = icmp eq i32 %130, 0
  br i1 %131, label %132, label %136

132:                                              ; preds = %115
  %133 = load ptr, ptr %9, align 8, !tbaa !18
  %134 = load i32, ptr %133, align 4, !tbaa !3
  %135 = add nsw i32 %134, -1
  store i32 %135, ptr %133, align 4, !tbaa !3
  br label %136

136:                                              ; preds = %132, %115
  br label %137

137:                                              ; preds = %136, %112
  br label %138

138:                                              ; preds = %137, %109
  br label %139

139:                                              ; preds = %138
  br label %140

140:                                              ; preds = %139
  br label %141

141:                                              ; preds = %140
  %142 = load i32, ptr %12, align 4, !tbaa !3
  call void @llvm.lifetime.end.p0(i64 8, ptr %15) #9
  call void @llvm.lifetime.end.p0(i64 4, ptr %14) #9
  call void @llvm.lifetime.end.p0(i64 1, ptr %13) #9
  call void @llvm.lifetime.end.p0(i64 4, ptr %12) #9
  call void @llvm.lifetime.end.p0(i64 400, ptr %11) #9
  ret i32 %142
}

; Function Attrs: nounwind uwtable
define i32 @wc_RsaPrivateKeyValidate(ptr noundef %0, ptr noundef %1, ptr noundef %2, i32 noundef %3) #0 {
  %5 = alloca ptr, align 8
  %6 = alloca ptr, align 8
  %7 = alloca ptr, align 8
  %8 = alloca i32, align 4
  store ptr %0, ptr %5, align 8, !tbaa !7
  store ptr %1, ptr %6, align 8, !tbaa !18
  store ptr %2, ptr %7, align 8, !tbaa !18
  store i32 %3, ptr %8, align 4, !tbaa !3
  %9 = load ptr, ptr %5, align 8, !tbaa !7
  %10 = load ptr, ptr %6, align 8, !tbaa !18
  %11 = load ptr, ptr %7, align 8, !tbaa !18
  %12 = load i32, ptr %8, align 4, !tbaa !3
  %13 = call i32 @_RsaPrivateKeyDecode(ptr noundef %9, ptr noundef %10, ptr noundef null, ptr noundef %11, i32 noundef %12)
  ret i32 %13
}