; Function Attrs: nounwind uwtable
define range(i32 -192, 1) i32 @wc_RsaPrivateKeyValidate(ptr noundef %0, ptr noundef captures(address_is_null) %1, ptr noundef writeonly captures(address_is_null) %2, i32 noundef %3) local_unnamed_addr #2 {
  %5 = alloca [10 x %struct.ASNGetData], align 16
  %6 = alloca i8, align 1
  %7 = alloca i32, align 4
  call void @llvm.lifetime.start.p0(i64 400, ptr nonnull %5) #22
  call void @llvm.lifetime.start.p0(i64 1, ptr nonnull %6) #22
  store i8 -1, ptr %6, align 1, !tbaa !3
  call void @llvm.lifetime.start.p0(i64 4, ptr nonnull %7) #22
  %8 = icmp eq ptr %1, null
  %9 = icmp eq ptr %0, null
  %or.cond.i = or i1 %9, %8
  %10 = icmp eq ptr %2, null
  %or.cond = or i1 %or.cond.i, %10
  br i1 %or.cond, label %.critedge.i, label %11

11:                                               ; preds = %4
  %12 = call i32 @ToTraditionalInline_ex2(ptr noundef nonnull %0, ptr noundef nonnull %1, i32 noundef %3, ptr noundef nonnull %7, ptr noundef null)
  call void @llvm.memset.p0.i64(ptr noundef nonnull align 16 dereferenceable(400) %5, i8 0, i64 400, i1 false)
  %13 = getelementptr inbounds nuw i8, ptr %5, i64 72
  store i8 1, ptr %13, align 8, !tbaa !32
  %14 = getelementptr inbounds nuw i8, ptr %5, i64 48
  store ptr %6, ptr %14, align 16, !tbaa !3
  %15 = call i32 @GetASN_Items(ptr noundef nonnull @rsaKeyASN, ptr noundef nonnull %5, i32 noundef 10, i32 noundef 1, ptr noundef nonnull %0, ptr noundef nonnull %1, i32 noundef %3)
  %.pre.i = load i8, ptr %6, align 1
  %16 = icmp ugt i8 %.pre.i, 1
  br label %17

.critedge.i:                                      ; preds = %4
  call void @llvm.memset.p0.i64(ptr noundef nonnull align 16 dereferenceable(400) %5, i8 0, i64 400, i1 false)
  br label %17

17:                                               ; preds = %.critedge.i, %11
  %18 = phi i1 [ %16, %11 ], [ true, %.critedge.i ]
  %.1.i = phi i32 [ %15, %11 ], [ -173, %.critedge.i ]
  %19 = icmp eq i32 %.1.i, 0
  %or.cond8.i = select i1 %19, i1 %18, i1 false
  %spec.store.select.i = select i1 %or.cond8.i, i32 -140, i32 %.1.i
  %20 = icmp eq i32 %spec.store.select.i, 0
  br i1 %20, label %21, label %_RsaPrivateKeyDecode.exit

21:                                               ; preds = %17
  %22 = getelementptr inbounds nuw i8, ptr %5, i64 84
  %23 = load i32, ptr %22, align 4, !tbaa !30
  store i32 %23, ptr %2, align 4, !tbaa !22
  %24 = getelementptr inbounds nuw i8, ptr %5, i64 120
  %25 = load i32, ptr %24, align 8, !tbaa !28
  %26 = sub nsw i32 %25, %23
  %27 = sext i32 %26 to i64
  %28 = getelementptr inbounds i8, ptr %0, i64 %27
  %29 = load i8, ptr %28, align 1, !tbaa !3
  %30 = icmp eq i8 %29, 0
  br i1 %30, label %31, label %_RsaPrivateKeyDecode.exit

31:                                               ; preds = %21
  %32 = add nsw i32 %23, -1
  store i32 %32, ptr %2, align 4, !tbaa !22
  br label %_RsaPrivateKeyDecode.exit

_RsaPrivateKeyDecode.exit:                        ; preds = %17, %21, %31
  call void @llvm.lifetime.end.p0(i64 4, ptr nonnull %7) #22
  call void @llvm.lifetime.end.p0(i64 1, ptr nonnull %6) #22
  call void @llvm.lifetime.end.p0(i64 400, ptr nonnull %5) #22
  ret i32 %spec.store.select.i
}